; Function Attrs: mustprogress optsize uwtable
define void @_ZNK5ZXing6Result7ecLevelB5cxx11Ev(ptr dead_on_unwind noalias nonnull writable sret(%"class.std::__cxx11::basic_string") align 8 %0, ptr noundef nonnull align 8 dereferenceable(211) %1) local_unnamed_addr #0 align 2 personality ptr @__gxx_personality_v0 {
_ZNSt7__cxx1112basic_stringIcSt11char_traitsIcESaIcEEC2IS3_EEPKcRKS3_.exit:
  %2 = getelementptr inbounds nuw i8, ptr %1, i64 196
  %3 = getelementptr inbounds nuw i8, ptr %0, i64 16
  store ptr %3, ptr %0, align 8, !tbaa !15
  %4 = tail call noundef i64 @strlen(ptr noundef nonnull dereferenceable(1) %2) #29
  %5 = getelementptr inbounds nuw i8, ptr %2, i64 %4
  tail call void @_ZNSt7__cxx1112basic_stringIcSt11char_traitsIcESaIcEE12_M_constructIPKcEEvT_S8_St20forward_iterator_tag(ptr noundef nonnull align 8 dereferenceable(32) %0, ptr noundef nonnull %2, ptr noundef nonnull %5) #27
  ret void
}